target datalayout = "e-m:e-p270:32:32-p271:32:32-p272:64:64-i64:64-i128:128-f80:128-n8:16:32:64-S128"
target triple = "x86_64-pc-linux-gnu"

%struct.expert_field = type { i32, i32 }

@hf_gdsdb_response_object = internal global i32 0, align 4
@hf_gdsdb_response_blobid = internal global i32 0, align 4
@hf_gdsdb_response_datasize = internal global i32 0, align 4
@hf_gdsdb_response_data = internal global i32 0, align 4
@hf_gdsdb_status_vector_arg = internal global i32 0, align 4
@hf_gdsdb_status_vector_error_code = internal global i32 0, align 4
@hf_gdsdb_status_vector_number = internal global i32 0, align 4
@hf_gdsdb_status_vector_string = internal global i32 0, align 4
@hf_gdsdb_status_vector_sql_state = internal global i32 0, align 4
@ei_gdsdb_invalid_length = internal global %struct.expert_field zeroinitializer, align 4
@.str.281 = private unnamed_addr constant [19 x i8] c"Invalid length: %d\00", align 1

; Function Attrs: nounwind uwtable
define internal i32 @add_uint_string(ptr noundef %0, i32 noundef %1, ptr noundef %2, i32 noundef %3) #0 {
  %5 = alloca i32, align 4
  %6 = alloca ptr, align 8
  %7 = alloca i32, align 4
  %8 = alloca ptr, align 8
  %9 = alloca i32, align 4
  %10 = alloca ptr, align 8
  %11 = alloca i32, align 4
  %12 = alloca i32, align 4
  store ptr %0, ptr %6, align 8
  store i32 %1, ptr %7, align 4
  store ptr %2, ptr %8, align 8
  store i32 %3, ptr %9, align 4
  %13 = load ptr, ptr %6, align 8
  %14 = load i32, ptr %7, align 4
  %15 = load ptr, ptr %8, align 8
  %16 = load i32, ptr %9, align 4
  %17 = call ptr @proto_tree_add_item(ptr noundef %13, i32 noundef %14, ptr noundef %15, i32 noundef %16, i32 noundef 4, i32 noundef 0)
  store ptr %17, ptr %10, align 8
  %18 = load ptr, ptr %8, align 8
  %19 = load i32, ptr %9, align 4
  %20 = call i32 @tvb_get_ntohl(ptr noundef %18, i32 noundef %19)
  %21 = call i32 @dword_align(i32 noundef %20)
  %22 = add i32 %21, 4
  store i32 %22, ptr %11, align 4
  %23 = load ptr, ptr %10, align 8
  %24 = load i32, ptr %11, align 4
  call void @proto_item_set_len(ptr noundef %23, i32 noundef %24)
  %25 = load i32, ptr %9, align 4
  %26 = load i32, ptr %11, align 4
  %27 = add i32 %25, %26
  store i32 %27, ptr %12, align 4
  %28 = load i32, ptr %11, align 4
  %29 = icmp slt i32 %28, 4
  br i1 %29, label %34, label %30

30:                                               ; preds = %4
  %31 = load i32, ptr %12, align 4
  %32 = load i32, ptr %9, align 4
  %33 = icmp slt i32 %31, %32
  br i1 %33, label %34, label %40

34:                                               ; preds = %30, %4
  %35 = load ptr, ptr %10, align 8
  %36 = load i32, ptr %11, align 4
  %37 = call ptr (ptr, ptr, ptr, ptr, ...) @expert_add_info_format(ptr noundef null, ptr noundef %35, ptr noundef @ei_gdsdb_invalid_length, ptr noundef @.str.281, i32 noundef %36)
  %38 = load ptr, ptr %8, align 8
  %39 = call i32 @tvb_reported_length(ptr noundef %38)
  store i32 %39, ptr %5, align 4
  br label %42

40:                                               ; preds = %30
  %41 = load i32, ptr %12, align 4
  store i32 %41, ptr %5, align 4
  br label %42

42:                                               ; preds = %40, %34
  %43 = load i32, ptr %5, align 4
  ret i32 %43
}

; Function Attrs: nounwind uwtable
define internal i32 @gdsdb_status_vector(ptr noundef %0, ptr noundef %1, i32 noundef %2) #0 {
  %4 = alloca ptr, align 8
  %5 = alloca ptr, align 8
  %6 = alloca i32, align 4
  %7 = alloca i32, align 4
  store ptr %0, ptr %4, align 8
  store ptr %1, ptr %5, align 8
  store i32 %2, ptr %6, align 4
  br label %8

8:                                                ; preds = %55, %3
  %9 = load ptr, ptr %5, align 8
  %10 = load i32, ptr %6, align 4
  %11 = call i32 @tvb_reported_length_remaining(ptr noundef %9, i32 noundef %10)
  %12 = icmp sge i32 %11, 4
  br i1 %12, label %13, label %56

13:                                               ; preds = %8
  %14 = load ptr, ptr %4, align 8
  %15 = load i32, ptr @hf_gdsdb_status_vector_arg, align 4
  %16 = load ptr, ptr %5, align 8
  %17 = load i32, ptr %6, align 4
  %18 = call ptr @proto_tree_add_item_ret_uint(ptr noundef %14, i32 noundef %15, ptr noundef %16, i32 noundef %17, i32 noundef 4, i32 noundef 0, ptr noundef %7)
  %19 = load i32, ptr %6, align 4
  %20 = add i32 %19, 4
  store i32 %20, ptr %6, align 4
  %21 = load i32, ptr %7, align 4
  %22 = icmp eq i32 %21, 0
  br i1 %22, label %23, label %24

23:                                               ; preds = %13
  br label %56

24:                                               ; preds = %13
  %25 = load i32, ptr %7, align 4
  switch i32 %25, label %27 [
    i32 1, label %26
    i32 4, label %35
    i32 2, label %43
    i32 5, label %43
    i32 19, label %49
  ]

26:                                               ; preds = %24
  br label %27

27:                                               ; preds = %26, %24
  %28 = load ptr, ptr %4, align 8
  %29 = load i32, ptr @hf_gdsdb_status_vector_error_code, align 4
  %30 = load ptr, ptr %5, align 8
  %31 = load i32, ptr %6, align 4
  %32 = call ptr @proto_tree_add_item(ptr noundef %28, i32 noundef %29, ptr noundef %30, i32 noundef %31, i32 noundef 4, i32 noundef 0)
  %33 = load i32, ptr %6, align 4
  %34 = add i32 %33, 4
  store i32 %34, ptr %6, align 4
  br label %55

35:                                               ; preds = %24
  %36 = load ptr, ptr %4, align 8
  %37 = load i32, ptr @hf_gdsdb_status_vector_number, align 4
  %38 = load ptr, ptr %5, align 8
  %39 = load i32, ptr %6, align 4
  %40 = call ptr @proto_tree_add_item(ptr noundef %36, i32 noundef %37, ptr noundef %38, i32 noundef %39, i32 noundef 4, i32 noundef 0)
  %41 = load i32, ptr %6, align 4
  %42 = add i32 %41, 4
  store i32 %42, ptr %6, align 4
  br label %55

43:                                               ; preds = %24, %24
  %44 = load ptr, ptr %4, align 8
  %45 = load i32, ptr @hf_gdsdb_status_vector_string, align 4
  %46 = load ptr, ptr %5, align 8
  %47 = load i32, ptr %6, align 4
  %48 = call i32 @add_uint_string(ptr noundef %44, i32 noundef %45, ptr noundef %46, i32 noundef %47)
  store i32 %48, ptr %6, align 4
  br label %55

49:                                               ; preds = %24
  %50 = load ptr, ptr %4, align 8
  %51 = load i32, ptr @hf_gdsdb_status_vector_sql_state, align 4
  %52 = load ptr, ptr %5, align 8
  %53 = load i32, ptr %6, align 4
  %54 = call i32 @add_uint_string(ptr noundef %50, i32 noundef %51, ptr noundef %52, i32 noundef %53)
  store i32 %54, ptr %6, align 4
  br label %55

55:                                               ; preds = %49, %43, %35, %27
  br label %8, !llvm.loop !8

56:                                               ; preds = %23, %8
  %57 = load i32, ptr %6, align 4
  ret i32 %57
}

; Function Attrs: nounwind uwtable
define internal i32 @dword_align(i32 noundef %0) #0 {
  %2 = alloca i32, align 4
  store i32 %0, ptr %2, align 4
  %3 = load i32, ptr %2, align 4
  %4 = load i32, ptr %2, align 4
  %5 = and i32 %4, 3
  %6 = sub i32 4, %5
  %7 = add i32 %3, %6
  ret i32 %7
}

; Function Attrs: nounwind uwtable
define internal i32 @gdsdb_response(ptr noundef %0, ptr noundef %1, ptr noundef %2, i32 noundef %3) #0 {
  %5 = alloca i32, align 4
  %6 = alloca ptr, align 8
  %7 = alloca ptr, align 8
  %8 = alloca ptr, align 8
  %9 = alloca i32, align 4
  %10 = alloca i32, align 4
  %11 = alloca i32, align 4
  %12 = alloca i32, align 4
  store ptr %0, ptr %6, align 8
  store ptr %1, ptr %7, align 8
  store ptr %2, ptr %8, align 8
  store i32 %3, ptr %9, align 4
  store i32 16, ptr %10, align 4
  %13 = load ptr, ptr %6, align 8
  %14 = load i32, ptr %9, align 4
  %15 = call i32 @tvb_reported_length_remaining(ptr noundef %13, i32 noundef %14)
  store i32 %15, ptr %11, align 4
  %16 = load i32, ptr %11, align 4
  %17 = load i32, ptr %10, align 4
  %18 = icmp slt i32 %16, %17
  br i1 %18, label %19, label %20

19:                                               ; preds = %4
  store i32 -1, ptr %5, align 4
  br label %71

20:                                               ; preds = %4
  %21 = load ptr, ptr %6, align 8
  %22 = load i32, ptr %9, align 4
  %23 = add i32 %22, 12
  %24 = call i32 @tvb_get_ntohl(ptr noundef %21, i32 noundef %23)
  %25 = call i32 @dword_align(i32 noundef %24)
  %26 = load i32, ptr %10, align 4
  %27 = add i32 %26, %25
  store i32 %27, ptr %10, align 4
  %28 = load i32, ptr %11, align 4
  %29 = load i32, ptr %10, align 4
  %30 = icmp slt i32 %28, %29
  br i1 %30, label %31, label %32

31:                                               ; preds = %20
  store i32 -1, ptr %5, align 4
  br label %71

32:                                               ; preds = %20
  %33 = load ptr, ptr %8, align 8
  %34 = load i32, ptr @hf_gdsdb_response_object, align 4
  %35 = load ptr, ptr %6, align 8
  %36 = load i32, ptr %9, align 4
  %37 = call ptr @proto_tree_add_item(ptr noundef %33, i32 noundef %34, ptr noundef %35, i32 noundef %36, i32 noundef 4, i32 noundef 0)
  %38 = load i32, ptr %9, align 4
  %39 = add i32 %38, 4
  store i32 %39, ptr %9, align 4
  %40 = load ptr, ptr %8, align 8
  %41 = load i32, ptr @hf_gdsdb_response_blobid, align 4
  %42 = load ptr, ptr %6, align 8
  %43 = load i32, ptr %9, align 4
  %44 = call ptr @proto_tree_add_item(ptr noundef %40, i32 noundef %41, ptr noundef %42, i32 noundef %43, i32 noundef 8, i32 noundef 0)
  %45 = load i32, ptr %9, align 4
  %46 = add i32 %45, 8
  store i32 %46, ptr %9, align 4
  %47 = load ptr, ptr %8, align 8
  %48 = load i32, ptr @hf_gdsdb_response_datasize, align 4
  %49 = load ptr, ptr %6, align 8
  %50 = load i32, ptr %9, align 4
  %51 = call ptr @proto_tree_add_item_ret_uint(ptr noundef %47, i32 noundef %48, ptr noundef %49, i32 noundef %50, i32 noundef 4, i32 noundef 0, ptr noundef %12)
  %52 = load i32, ptr %9, align 4
  %53 = add i32 %52, 4
  store i32 %53, ptr %9, align 4
  %54 = load i32, ptr %12, align 4
  %55 = icmp ugt i32 %54, 0
  br i1 %55, label %56, label %63

56:                                               ; preds = %32
  %57 = load ptr, ptr %8, align 8
  %58 = load i32, ptr @hf_gdsdb_response_data, align 4
  %59 = load ptr, ptr %6, align 8
  %60 = load i32, ptr %9, align 4
  %61 = load i32, ptr %12, align 4
  %62 = call ptr @proto_tree_add_item(ptr noundef %57, i32 noundef %58, ptr noundef %59, i32 noundef %60, i32 noundef %61, i32 noundef 0)
  br label %63

63:                                               ; preds = %56, %32
  %64 = load i32, ptr %12, align 4
  %65 = load i32, ptr %9, align 4
  %66 = add i32 %65, %64
  store i32 %66, ptr %9, align 4
  %67 = load ptr, ptr %8, align 8
  %68 = load ptr, ptr %6, align 8
  %69 = load i32, ptr %9, align 4
  %70 = call i32 @gdsdb_status_vector(ptr noundef %67, ptr noundef %68, i32 noundef %69)
  store i32 %70, ptr %5, align 4
  br label %71

71:                                               ; preds = %63, %31, %19
  %72 = load i32, ptr %5, align 4
  ret i32 %72
}