; Function Attrs: nounwind uwtable
define internal noundef i32 @gdsdb_response(ptr noundef %0, ptr readnone captures(none) %1, ptr noundef %2, i32 noundef %3) #0 {
  %5 = alloca i32, align 4
  %6 = alloca i32, align 4
  %7 = tail call i32 @tvb_reported_length_remaining(ptr noundef %0, i32 noundef %3) #3
  %8 = icmp slt i32 %7, 16
  br i1 %8, label %70, label %9

9:                                                ; preds = %4
  %10 = add i32 %3, 12
  %11 = tail call i32 @tvb_get_ntohl(ptr noundef %0, i32 noundef %10) #3
  %reass.sub.i = and i32 %11, -4
  %12 = add i32 %reass.sub.i, 20
  %13 = icmp slt i32 %7, %12
  br i1 %13, label %70, label %14

14:                                               ; preds = %9
  %15 = load i32, ptr @hf_gdsdb_response_object, align 4
  %16 = tail call ptr @proto_tree_add_item(ptr noundef %2, i32 noundef %15, ptr noundef %0, i32 noundef %3, i32 noundef 4, i32 noundef 0) #3
  %17 = add i32 %3, 4
  %18 = load i32, ptr @hf_gdsdb_response_blobid, align 4
  %19 = tail call ptr @proto_tree_add_item(ptr noundef %2, i32 noundef %18, ptr noundef %0, i32 noundef %17, i32 noundef 8, i32 noundef 0) #3
  %20 = load i32, ptr @hf_gdsdb_response_datasize, align 4
  %21 = call ptr @proto_tree_add_item_ret_uint(ptr noundef %2, i32 noundef %20, ptr noundef %0, i32 noundef %10, i32 noundef 4, i32 noundef 0, ptr noundef nonnull %6) #3
  %22 = add i32 %3, 16
  %23 = load i32, ptr %6, align 4
  %.not = icmp eq i32 %23, 0
  br i1 %.not, label %27, label %24

24:                                               ; preds = %14
  %25 = load i32, ptr @hf_gdsdb_response_data, align 4
  %26 = call ptr @proto_tree_add_item(ptr noundef %2, i32 noundef %25, ptr noundef %0, i32 noundef %22, i32 noundef %23, i32 noundef 0) #3
  %.pre = load i32, ptr %6, align 4
  br label %27

27:                                               ; preds = %24, %14
  %28 = phi i32 [ %.pre, %24 ], [ 0, %14 ]
  %29 = add i32 %28, %22
  call void @llvm.lifetime.start.p0(i64 4, ptr nonnull %5)
  %30 = call i32 @tvb_reported_length_remaining(ptr noundef %0, i32 noundef %29) #3
  %31 = icmp sgt i32 %30, 3
  br i1 %31, label %.lr.ph.i, label %gdsdb_status_vector.exit

.lr.ph.i:                                         ; preds = %27, %add_uint_string.exit.i
  %.025.i = phi i32 [ %.2.i, %add_uint_string.exit.i ], [ %29, %27 ]
  %32 = load i32, ptr @hf_gdsdb_status_vector_arg, align 4
  %33 = call ptr @proto_tree_add_item_ret_uint(ptr noundef %2, i32 noundef %32, ptr noundef %0, i32 noundef %.025.i, i32 noundef 4, i32 noundef 0, ptr noundef nonnull %5) #3
  %34 = add i32 %.025.i, 4
  %35 = load i32, ptr %5, align 4
  switch i32 %35, label %36 [
    i32 0, label %gdsdb_status_vector.exit
    i32 19, label %56
    i32 4, label %40
    i32 2, label %44
    i32 5, label %44
  ]

36:                                               ; preds = %.lr.ph.i
  %37 = load i32, ptr @hf_gdsdb_status_vector_error_code, align 4
  %38 = call ptr @proto_tree_add_item(ptr noundef %2, i32 noundef %37, ptr noundef %0, i32 noundef %34, i32 noundef 4, i32 noundef 0) #3
  %39 = add i32 %.025.i, 8
  br label %add_uint_string.exit.i

40:                                               ; preds = %.lr.ph.i
  %41 = load i32, ptr @hf_gdsdb_status_vector_number, align 4
  %42 = call ptr @proto_tree_add_item(ptr noundef %2, i32 noundef %41, ptr noundef %0, i32 noundef %34, i32 noundef 4, i32 noundef 0) #3
  %43 = add i32 %.025.i, 8
  br label %add_uint_string.exit.i

44:                                               ; preds = %.lr.ph.i, %.lr.ph.i
  %45 = load i32, ptr @hf_gdsdb_status_vector_string, align 4
  %46 = call ptr @proto_tree_add_item(ptr noundef %2, i32 noundef %45, ptr noundef %0, i32 noundef %34, i32 noundef 4, i32 noundef 0) #3
  %47 = call i32 @tvb_get_ntohl(ptr noundef %0, i32 noundef %34) #3
  %reass.sub.i.i.i = and i32 %47, -4
  %48 = add i32 %reass.sub.i.i.i, 8
  call void @proto_item_set_len(ptr noundef %46, i32 noundef %48) #3
  %49 = add i32 %48, %34
  %50 = add i32 %47, -2147483640
  %51 = icmp ult i32 %50, -2147483644
  %52 = icmp slt i32 %49, %34
  %or.cond.i.i = or i1 %51, %52
  br i1 %or.cond.i.i, label %53, label %add_uint_string.exit.i

53:                                               ; preds = %44
  %54 = call ptr (ptr, ptr, ptr, ptr, ...) @expert_add_info_format(ptr noundef null, ptr noundef %46, ptr noundef nonnull @ei_gdsdb_invalid_length, ptr noundef nonnull @.str.281, i32 noundef %48) #3
  %55 = call i32 @tvb_reported_length(ptr noundef %0) #3
  br label %add_uint_string.exit.i

56:                                               ; preds = %.lr.ph.i
  %57 = load i32, ptr @hf_gdsdb_status_vector_sql_state, align 4
  %58 = call ptr @proto_tree_add_item(ptr noundef %2, i32 noundef %57, ptr noundef %0, i32 noundef %34, i32 noundef 4, i32 noundef 0) #3
  %59 = call i32 @tvb_get_ntohl(ptr noundef %0, i32 noundef %34) #3
  %reass.sub.i.i21.i = and i32 %59, -4
  %60 = add i32 %reass.sub.i.i21.i, 8
  call void @proto_item_set_len(ptr noundef %58, i32 noundef %60) #3
  %61 = add i32 %60, %34
  %62 = add i32 %59, -2147483640
  %63 = icmp ult i32 %62, -2147483644
  %64 = icmp slt i32 %61, %34
  %or.cond.i22.i = or i1 %63, %64
  br i1 %or.cond.i22.i, label %65, label %add_uint_string.exit.i

65:                                               ; preds = %56
  %66 = call ptr (ptr, ptr, ptr, ptr, ...) @expert_add_info_format(ptr noundef null, ptr noundef %58, ptr noundef nonnull @ei_gdsdb_invalid_length, ptr noundef nonnull @.str.281, i32 noundef %60) #3
  %67 = call i32 @tvb_reported_length(ptr noundef %0) #3
  br label %add_uint_string.exit.i

add_uint_string.exit.i:                           ; preds = %65, %56, %53, %44, %40, %36
  %.2.i = phi i32 [ %39, %36 ], [ %43, %40 ], [ %55, %53 ], [ %49, %44 ], [ %67, %65 ], [ %61, %56 ]
  %68 = call i32 @tvb_reported_length_remaining(ptr noundef %0, i32 noundef %.2.i) #3
  %69 = icmp sgt i32 %68, 3
  br i1 %69, label %.lr.ph.i, label %gdsdb_status_vector.exit, !llvm.loop !6

gdsdb_status_vector.exit:                         ; preds = %.lr.ph.i, %add_uint_string.exit.i, %27
  %.1.i = phi i32 [ %29, %27 ], [ %.2.i, %add_uint_string.exit.i ], [ %34, %.lr.ph.i ]
  call void @llvm.lifetime.end.p0(i64 4, ptr nonnull %5)
  br label %70

70:                                               ; preds = %9, %4, %gdsdb_status_vector.exit
  %.0 = phi i32 [ %.1.i, %gdsdb_status_vector.exit ], [ -1, %4 ], [ -1, %9 ]
  ret i32 %.0
}